target datalayout = "e-m:e-p270:32:32-p271:32:32-p272:64:64-i64:64-i128:128-f80:128-n8:16:32:64-S128"
target triple = "x86_64-pc-linux-gnu"

%struct.AVBSFContext = type { ptr, ptr, ptr, ptr, ptr, %struct.AVRational, %struct.AVRational }
%struct.AVRational = type { i32, i32 }
%struct.ProresMetadataContext = type { ptr, i32, i32, i32 }

@.str.24 = private unnamed_addr constant [41 x i8] c"Color primaries %d is not a valid value\0A\00", align 1
@.str.25 = private unnamed_addr constant [36 x i8] c"Colorspace %d is not a valid value\0A\00", align 1

; Function Attrs: nounwind uwtable
define internal i32 @prores_metadata_init(ptr noundef %0) #0 {
  %2 = alloca i32, align 4
  %3 = alloca ptr, align 8
  %4 = alloca ptr, align 8
  %5 = alloca i32, align 4
  store ptr %0, ptr %3, align 8, !tbaa !4
  call void @llvm.lifetime.start.p0(i64 8, ptr %4) #4
  %6 = load ptr, ptr %3, align 8, !tbaa !4
  %7 = getelementptr inbounds nuw %struct.AVBSFContext, ptr %6, i32 0, i32 2
  %8 = load ptr, ptr %7, align 8, !tbaa !9
  store ptr %8, ptr %4, align 8, !tbaa !16
  %9 = load ptr, ptr %4, align 8, !tbaa !16
  %10 = getelementptr inbounds nuw %struct.ProresMetadataContext, ptr %9, i32 0, i32 1
  %11 = load i32, ptr %10, align 8, !tbaa !18
  switch i32 %11, label %13 [
    i32 -1, label %12
    i32 0, label %12
    i32 1, label %12
    i32 5, label %12
    i32 6, label %12
    i32 9, label %12
    i32 11, label %12
    i32 12, label %12
  ]

12:                                               ; preds = %1, %1, %1, %1, %1, %1, %1, %1
  br label %18

13:                                               ; preds = %1
  %14 = load ptr, ptr %3, align 8, !tbaa !4
  %15 = load ptr, ptr %4, align 8, !tbaa !16
  %16 = getelementptr inbounds nuw %struct.ProresMetadataContext, ptr %15, i32 0, i32 1
  %17 = load i32, ptr %16, align 8, !tbaa !18
  call void (ptr, i32, ptr, ...) @av_log(ptr noundef %14, i32 noundef 16, ptr noundef @.str.24, i32 noundef %17)
  store i32 -22, ptr %2, align 4
  store i32 1, ptr %5, align 4
  br label %29

18:                                               ; preds = %12
  %19 = load ptr, ptr %4, align 8, !tbaa !16
  %20 = getelementptr inbounds nuw %struct.ProresMetadataContext, ptr %19, i32 0, i32 3
  %21 = load i32, ptr %20, align 8, !tbaa !20
  switch i32 %21, label %23 [
    i32 -1, label %22
    i32 0, label %22
    i32 1, label %22
    i32 6, label %22
    i32 9, label %22
  ]

22:                                               ; preds = %18, %18, %18, %18, %18
  br label %28

23:                                               ; preds = %18
  %24 = load ptr, ptr %3, align 8, !tbaa !4
  %25 = load ptr, ptr %4, align 8, !tbaa !16
  %26 = getelementptr inbounds nuw %struct.ProresMetadataContext, ptr %25, i32 0, i32 3
  %27 = load i32, ptr %26, align 8, !tbaa !20
  call void (ptr, i32, ptr, ...) @av_log(ptr noundef %24, i32 noundef 16, ptr noundef @.str.25, i32 noundef %27)
  store i32 -22, ptr %2, align 4
  store i32 1, ptr %5, align 4
  br label %29

28:                                               ; preds = %22
  store i32 0, ptr %2, align 4
  store i32 1, ptr %5, align 4
  br label %29

29:                                               ; preds = %28, %23, %13
  call void @llvm.lifetime.end.p0(i64 8, ptr %4) #4
  %30 = load i32, ptr %2, align 4
  ret i32 %30
}