; Function Attrs: nounwind uwtable
define internal range(i32 -22, 1) i32 @prores_metadata_init(ptr noundef %0) #0 {
  %2 = getelementptr inbounds nuw i8, ptr %0, i64 16
  %3 = load ptr, ptr %2, align 8, !tbaa !4
  %4 = getelementptr inbounds nuw i8, ptr %3, i64 8
  %5 = load i32, ptr %4, align 8, !tbaa !14
  switch i32 %5, label %6 [
    i32 -1, label %7
    i32 0, label %7
    i32 1, label %7
    i32 5, label %7
    i32 6, label %7
    i32 9, label %7
    i32 11, label %7
    i32 12, label %7
  ]

6:                                                ; preds = %1
  tail call void (ptr, i32, ptr, ...) @av_log(ptr noundef nonnull %0, i32 noundef 16, ptr noundef nonnull @.str.24, i32 noundef %5) #3
  br label %switch.lookup

7:                                                ; preds = %1, %1, %1, %1, %1, %1, %1, %1
  %8 = getelementptr inbounds nuw i8, ptr %3, i64 16
  %9 = load i32, ptr %8, align 8, !tbaa !16
  %switch.tableidx = add i32 %9, 1
  %10 = icmp ult i32 %switch.tableidx, 11
  %switch.maskindex = trunc i32 %switch.tableidx to i16
  %switch.shifted = lshr i16 1159, %switch.maskindex
  %switch.lobit = trunc i16 %switch.shifted to i1
  %or.cond = select i1 %10, i1 %switch.lobit, i1 false
  br i1 %or.cond, label %switch.lookup, label %11

11:                                               ; preds = %7
  tail call void (ptr, i32, ptr, ...) @av_log(ptr noundef nonnull %0, i32 noundef 16, ptr noundef nonnull @.str.25, i32 noundef %9) #3
  br label %switch.lookup

switch.lookup:                                    ; preds = %7, %11, %6
  %.0 = phi i32 [ -22, %6 ], [ -22, %11 ], [ 0, %7 ]
  ret i32 %.0
}